target datalayout = "e-m:e-p270:32:32-p271:32:32-p272:64:64-i64:64-i128:128-f80:128-n8:16:32:64-S128"
target triple = "x86_64-pc-linux-gnu"

%struct.stat = type { i64, i64, i64, i32, i32, i32, i32, i64, i64, i64, i64, %struct.timespec, %struct.timespec, %struct.timespec, [3 x i64] }
%struct.timespec = type { i64, i64 }

@.str.14 = private unnamed_addr constant [3 x i8] c"%s\00", align 1
@PauseAtStartupFile = external global ptr, align 8
@.str.58 = private unnamed_addr constant [15 x i8] c"./vm.paused.%d\00", align 1
@stderr = external global ptr, align 8
@.str.59 = private unnamed_addr constant [57 x i8] c"Could not open pause file '%s', continuing immediately.\0A\00", align 1

; Function Attrs: mustprogress nounwind uwtable
define hidden void @_ZN2os5pauseEv() #1 align 2 {
  %1 = alloca [2048 x i8], align 16
  %2 = alloca i32, align 4
  %3 = alloca %struct.stat, align 8
  %4 = load ptr, ptr @PauseAtStartupFile, align 8
  %5 = icmp ne ptr %4, null
  br i1 %5, label %6, label %15

6:                                                ; preds = %0
  %7 = load ptr, ptr @PauseAtStartupFile, align 8
  %8 = getelementptr inbounds i8, ptr %7, i64 0
  %9 = load i8, ptr %8, align 1
  %10 = icmp ne i8 %9, 0
  br i1 %10, label %11, label %15

11:                                               ; preds = %6
  %12 = getelementptr inbounds [2048 x i8], ptr %1, i64 0, i64 0
  %13 = load ptr, ptr @PauseAtStartupFile, align 8
  %14 = call i32 (ptr, i64, ptr, ...) @jio_snprintf(ptr noundef %12, i64 noundef 2048, ptr noundef @.str.14, ptr noundef %13)
  br label %19

15:                                               ; preds = %6, %0
  %16 = getelementptr inbounds [2048 x i8], ptr %1, i64 0, i64 0
  %17 = call noundef i32 @_ZN2os18current_process_idEv()
  %18 = call i32 (ptr, i64, ptr, ...) @jio_snprintf(ptr noundef %16, i64 noundef 2048, ptr noundef @.str.58, i32 noundef %17)
  br label %19

19:                                               ; preds = %15, %11
  %20 = getelementptr inbounds [2048 x i8], ptr %1, i64 0, i64 0
  %21 = call i32 (ptr, i32, ...) @open64(ptr noundef %20, i32 noundef 577, i32 noundef 438)
  store i32 %21, ptr %2, align 4
  %22 = load i32, ptr %2, align 4
  %23 = icmp ne i32 %22, -1
  br i1 %23, label %24, label %34

24:                                               ; preds = %19
  %25 = load i32, ptr %2, align 4
  %26 = call i32 @close(i32 noundef %25)
  br label %27

27:                                               ; preds = %31, %24
  %28 = getelementptr inbounds [2048 x i8], ptr %1, i64 0, i64 0
  %29 = call i32 @stat64(ptr noundef %28, ptr noundef %3) #13
  %30 = icmp eq i32 %29, 0
  br i1 %30, label %31, label %33

31:                                               ; preds = %27
  %32 = call i32 @poll(ptr noundef null, i64 noundef 0, i32 noundef 100)
  br label %27, !llvm.loop !25

33:                                               ; preds = %27
  br label %38

34:                                               ; preds = %19
  %35 = load ptr, ptr @stderr, align 8
  %36 = getelementptr inbounds [2048 x i8], ptr %1, i64 0, i64 0
  %37 = call i32 (ptr, ptr, ...) @jio_fprintf(ptr noundef %35, ptr noundef @.str.59, ptr noundef %36)
  br label %38

38:                                               ; preds = %34, %33
  ret void
}