; Function Attrs: mustprogress nounwind uwtable
define hidden void @_ZN2os5pauseEv() local_unnamed_addr #3 align 2 {
  %1 = alloca [2048 x i8], align 16
  %2 = alloca %struct.stat, align 8
  %3 = load ptr, ptr @PauseAtStartupFile, align 8
  %.not = icmp eq ptr %3, null
  br i1 %.not, label %8, label %4

4:                                                ; preds = %0
  %5 = load i8, ptr %3, align 1
  %.not3 = icmp eq i8 %5, 0
  br i1 %.not3, label %8, label %6

6:                                                ; preds = %4
  %7 = call i32 (ptr, i64, ptr, ...) @jio_snprintf(ptr noundef nonnull %1, i64 noundef 2048, ptr noundef nonnull @.str.14, ptr noundef nonnull %3) #28
  br label %11

8:                                                ; preds = %4, %0
  %9 = tail call noundef i32 @_ZN2os18current_process_idEv() #28
  %10 = call i32 (ptr, i64, ptr, ...) @jio_snprintf(ptr noundef nonnull %1, i64 noundef 2048, ptr noundef nonnull @.str.58, i32 noundef %9) #28
  br label %11

11:                                               ; preds = %8, %6
  %12 = call i32 (ptr, i32, ...) @open64(ptr noundef nonnull %1, i32 noundef 577, i32 noundef 438) #28
  %.not4 = icmp eq i32 %12, -1
  br i1 %.not4, label %20, label %13

13:                                               ; preds = %11
  %14 = call i32 @close(i32 noundef %12) #28
  %15 = call i32 @stat64(ptr noundef nonnull %1, ptr noundef nonnull %2) #28
  %16 = icmp eq i32 %15, 0
  br i1 %16, label %.lr.ph, label %.loopexit

.lr.ph:                                           ; preds = %13, %.lr.ph
  %17 = call i32 @poll(ptr noundef null, i64 noundef 0, i32 noundef 100) #28
  %18 = call i32 @stat64(ptr noundef nonnull %1, ptr noundef nonnull %2) #28
  %19 = icmp eq i32 %18, 0
  br i1 %19, label %.lr.ph, label %.loopexit, !llvm.loop !27

20:                                               ; preds = %11
  %21 = load ptr, ptr @stderr, align 8
  %22 = call i32 (ptr, ptr, ...) @jio_fprintf(ptr noundef %21, ptr noundef nonnull @.str.59, ptr noundef nonnull %1) #28
  br label %.loopexit

.loopexit:                                        ; preds = %.lr.ph, %13, %20
  ret void
}